; Function Attrs: nounwind uwtable
define dso_local ptr @git_committer_info(i32 noundef %0) local_unnamed_addr #0 {
  %2 = tail call ptr @getenv(ptr noundef nonnull @.str.12) #19
  %.not = icmp eq ptr %2, null
  br i1 %.not, label %6, label %3

3:                                                ; preds = %1
  %4 = load i32, ptr @committer_ident_explicitly_given, align 4, !tbaa !4
  %5 = or i32 %4, 1
  store i32 %5, ptr @committer_ident_explicitly_given, align 4, !tbaa !4
  br label %6

6:                                                ; preds = %3, %1
  %7 = tail call ptr @getenv(ptr noundef nonnull @.str.13) #19
  %.not1 = icmp eq ptr %7, null
  br i1 %.not1, label %11, label %8

8:                                                ; preds = %6
  %9 = load i32, ptr @committer_ident_explicitly_given, align 4, !tbaa !4
  %10 = or i32 %9, 2
  store i32 %10, ptr @committer_ident_explicitly_given, align 4, !tbaa !4
  br label %11

11:                                               ; preds = %8, %6
  %12 = tail call ptr @getenv(ptr noundef nonnull @.str.12) #19
  %13 = tail call ptr @getenv(ptr noundef nonnull @.str.13) #19
  %14 = tail call ptr @getenv(ptr noundef nonnull @.str.15) #19
  %15 = tail call ptr @fmt_ident(ptr noundef %12, ptr noundef %13, i32 noundef 2, ptr noundef %14, i32 noundef %0)
  ret ptr %15
}